target datalayout = "e-m:e-p270:32:32-p271:32:32-p272:64:64-i64:64-i128:128-f80:128-n8:16:32:64-S128"
target triple = "x86_64-pc-linux-gnu"

%struct.FunctionCallInfoBaseData = type { ptr, ptr, ptr, i32, i8, i16, [0 x %struct.NullableDatum] }
%struct.NullableDatum = type { i64, i8 }
%struct.TupleDescData = type { i32, i32, i32, i32, ptr, [0 x %struct.CompactAttribute] }
%struct.CompactAttribute = type { i32, i16, i8, i8, i8, i8, i8, i8, i8 }
%struct.FormData_pg_attribute = type { i32, %struct.nameData, i32, i16, i16, i32, i16, i8, i8, i8, i8, i8, i8, i8, i8, i8, i8, i8, i16, i32 }
%struct.nameData = type { [64 x i8] }

@.str.1 = private unnamed_addr constant [17 x i8] c"orderedsetaggs.c\00", align 1
@.str.9 = private unnamed_addr constant [43 x i8] c"type mismatch in hypothetical-set function\00", align 1
@__func__.hypothetical_check_argtypes = private unnamed_addr constant [28 x i8] c"hypothetical_check_argtypes\00", align 1

; Function Attrs: inlinehint nounwind uwtable
define internal ptr @TupleDescAttr(ptr noundef %0, i32 noundef %1) #2 {
  %3 = alloca ptr, align 8
  %4 = alloca i32, align 4
  %5 = alloca ptr, align 8
  store ptr %0, ptr %3, align 8
  store i32 %1, ptr %4, align 4
  call void @llvm.lifetime.start.p0(i64 8, ptr %5) #8
  %6 = load ptr, ptr %3, align 8
  %7 = load ptr, ptr %3, align 8
  %8 = getelementptr inbounds nuw %struct.TupleDescData, ptr %7, i32 0, i32 0
  %9 = load i32, ptr %8, align 8
  %10 = sext i32 %9 to i64
  %11 = mul i64 %10, 16
  %12 = add i64 24, %11
  %13 = getelementptr inbounds nuw i8, ptr %6, i64 %12
  store ptr %13, ptr %5, align 8
  %14 = load ptr, ptr %5, align 8
  %15 = load i32, ptr %4, align 4
  %16 = sext i32 %15 to i64
  %17 = getelementptr inbounds %struct.FormData_pg_attribute, ptr %14, i64 %16
  call void @llvm.lifetime.end.p0(i64 8, ptr %5) #8
  ret ptr %17
}

; Function Attrs: nounwind uwtable
define internal void @hypothetical_check_argtypes(ptr noundef %0, i32 noundef %1, ptr noundef %2) #0 {
  %4 = alloca ptr, align 8
  %5 = alloca i32, align 4
  %6 = alloca ptr, align 8
  %7 = alloca i32, align 4
  %8 = alloca ptr, align 8
  store ptr %0, ptr %4, align 8
  store i32 %1, ptr %5, align 4
  store ptr %2, ptr %6, align 8
  call void @llvm.lifetime.start.p0(i64 4, ptr %7) #8
  %9 = load ptr, ptr %6, align 8
  %10 = icmp ne ptr %9, null
  br i1 %10, label %11, label %25

11:                                               ; preds = %3
  %12 = load i32, ptr %5, align 4
  %13 = add i32 %12, 1
  %14 = load ptr, ptr %6, align 8
  %15 = getelementptr inbounds nuw %struct.TupleDescData, ptr %14, i32 0, i32 0
  %16 = load i32, ptr %15, align 8
  %17 = icmp ne i32 %13, %16
  br i1 %17, label %25, label %18

18:                                               ; preds = %11
  %19 = load ptr, ptr %6, align 8
  %20 = load i32, ptr %5, align 4
  %21 = call ptr @TupleDescAttr(ptr noundef %19, i32 noundef %20)
  %22 = getelementptr inbounds nuw %struct.FormData_pg_attribute, ptr %21, i32 0, i32 2
  %23 = load i32, ptr %22, align 4
  %24 = icmp ne i32 %23, 23
  br i1 %24, label %25, label %36

25:                                               ; preds = %18, %11, %3
  br label %26

26:                                               ; preds = %25
  br i1 true, label %27, label %29

27:                                               ; preds = %26
  %28 = call zeroext i1 @errstart_cold(i32 noundef 21, ptr noundef null) #9
  br i1 %28, label %31, label %33

29:                                               ; preds = %26
  %30 = call zeroext i1 @errstart(i32 noundef 21, ptr noundef null)
  br i1 %30, label %31, label %33

31:                                               ; preds = %29, %27
  %32 = call i32 (ptr, ...) @errmsg_internal(ptr noundef @.str.9)
  call void @errfinish(ptr noundef @.str.1, i32 noundef 1151, ptr noundef @__func__.hypothetical_check_argtypes)
  br label %33

33:                                               ; preds = %31, %29, %27
  unreachable

34:                                               ; No predecessors!
  br label %35

35:                                               ; preds = %34
  br label %36

36:                                               ; preds = %35, %18
  store i32 0, ptr %7, align 4
  br label %37

37:                                               ; preds = %67, %36
  %38 = load i32, ptr %7, align 4
  %39 = load i32, ptr %5, align 4
  %40 = icmp slt i32 %38, %39
  br i1 %40, label %41, label %70

41:                                               ; preds = %37
  call void @llvm.lifetime.start.p0(i64 8, ptr %8) #8
  %42 = load ptr, ptr %6, align 8
  %43 = load i32, ptr %7, align 4
  %44 = call ptr @TupleDescAttr(ptr noundef %42, i32 noundef %43)
  store ptr %44, ptr %8, align 8
  %45 = load ptr, ptr %4, align 8
  %46 = getelementptr inbounds nuw %struct.FunctionCallInfoBaseData, ptr %45, i32 0, i32 0
  %47 = load ptr, ptr %46, align 8
  %48 = load i32, ptr %7, align 4
  %49 = add i32 %48, 1
  %50 = call i32 @get_fn_expr_argtype(ptr noundef %47, i32 noundef %49)
  %51 = load ptr, ptr %8, align 8
  %52 = getelementptr inbounds nuw %struct.FormData_pg_attribute, ptr %51, i32 0, i32 2
  %53 = load i32, ptr %52, align 4
  %54 = icmp ne i32 %50, %53
  br i1 %54, label %55, label %66

55:                                               ; preds = %41
  br label %56

56:                                               ; preds = %55
  br i1 true, label %57, label %59

57:                                               ; preds = %56
  %58 = call zeroext i1 @errstart_cold(i32 noundef 21, ptr noundef null) #9
  br i1 %58, label %61, label %63

59:                                               ; preds = %56
  %60 = call zeroext i1 @errstart(i32 noundef 21, ptr noundef null)
  br i1 %60, label %61, label %63

61:                                               ; preds = %59, %57
  %62 = call i32 (ptr, ...) @errmsg_internal(ptr noundef @.str.9)
  call void @errfinish(ptr noundef @.str.1, i32 noundef 1159, ptr noundef @__func__.hypothetical_check_argtypes)
  br label %63

63:                                               ; preds = %61, %59, %57
  unreachable

64:                                               ; No predecessors!
  br label %65

65:                                               ; preds = %64
  br label %66

66:                                               ; preds = %65, %41
  call void @llvm.lifetime.end.p0(i64 8, ptr %8) #8
  br label %67

67:                                               ; preds = %66
  %68 = load i32, ptr %7, align 4
  %69 = add i32 %68, 1
  store i32 %69, ptr %7, align 4
  br label %37, !llvm.loop !20

70:                                               ; preds = %37
  call void @llvm.lifetime.end.p0(i64 4, ptr %7) #8
  ret void
}