; Function Attrs: nounwind uwtable
define internal fastcc void @hypothetical_check_argtypes(ptr noundef readonly captures(none) %0, i32 noundef range(i32 -16384, 16384) %1, ptr noundef readonly captures(address_is_null) %2) unnamed_addr #0 {
  %.not = icmp eq ptr %2, null
  br i1 %.not, label %15, label %4

4:                                                ; preds = %3
  %5 = add nsw i32 %1, 1
  %6 = load i32, ptr %2, align 8
  %.not13 = icmp eq i32 %5, %6
  br i1 %.not13, label %7, label %15

7:                                                ; preds = %4
  %8 = sext i32 %5 to i64
  %9 = shl nsw i64 %8, 4
  %10 = getelementptr i8, ptr %2, i64 %9
  %11 = sext i32 %1 to i64
  %.idx = mul nsw i64 %11, 100
  %12 = getelementptr i8, ptr %10, i64 92
  %13 = getelementptr i8, ptr %12, i64 %.idx
  %14 = load i32, ptr %13, align 4
  %.not14 = icmp eq i32 %14, 23
  br i1 %.not14, label %.preheader, label %15

.preheader:                                       ; preds = %7
  %invariant.gep = getelementptr i8, ptr %2, i64 92
  %smax = tail call i32 @llvm.smax.i32(i32 %1, i32 0)
  %wide.trip.count = zext nneg i32 %smax to i64
  br label %18

15:                                               ; preds = %7, %4, %3
  %16 = tail call zeroext i1 @errstart_cold(i32 noundef 21, ptr noundef null) #11
  tail call void @llvm.assume(i1 %16)
  %17 = tail call i32 (ptr, ...) @errmsg_internal(ptr noundef nonnull @.str.9) #10
  tail call void @errfinish(ptr noundef nonnull @.str.1, i32 noundef 1151, ptr noundef nonnull @__func__.hypothetical_check_argtypes) #10
  unreachable

18:                                               ; preds = %.preheader, %19
  %indvars.iv = phi i64 [ 0, %.preheader ], [ %indvars.iv.next, %19 ]
  %exitcond.not = icmp eq i64 %indvars.iv, %wide.trip.count
  br i1 %exitcond.not, label %31, label %19

19:                                               ; preds = %18
  %20 = load i32, ptr %2, align 8
  %21 = sext i32 %20 to i64
  %22 = shl nsw i64 %21, 4
  %23 = load ptr, ptr %0, align 8
  %indvars.iv.next = add nuw nsw i64 %indvars.iv, 1
  %24 = trunc nuw nsw i64 %indvars.iv.next to i32
  %25 = tail call i32 @get_fn_expr_argtype(ptr noundef %23, i32 noundef %24) #10
  %.idx16 = mul nuw nsw i64 %indvars.iv, 100
  %gep = getelementptr i8, ptr %invariant.gep, i64 %22
  %26 = getelementptr i8, ptr %gep, i64 %.idx16
  %27 = load i32, ptr %26, align 4
  %.not15 = icmp eq i32 %25, %27
  br i1 %.not15, label %18, label %28, !llvm.loop !19

28:                                               ; preds = %19
  %29 = tail call zeroext i1 @errstart_cold(i32 noundef 21, ptr noundef null) #11
  tail call void @llvm.assume(i1 %29)
  %30 = tail call i32 (ptr, ...) @errmsg_internal(ptr noundef nonnull @.str.9) #10
  tail call void @errfinish(ptr noundef nonnull @.str.1, i32 noundef 1159, ptr noundef nonnull @__func__.hypothetical_check_argtypes) #10
  unreachable

31:                                               ; preds = %18
  ret void
}